; Function Attrs: mustprogress uwtable
define hidden noundef zeroext i1 @_ZN10ODDLParser13OpenDDLExport13writeToStreamERKNSt7__cxx1112basic_stringIcSt11char_traitsIcESaIcEEE(ptr noundef nonnull readonly align 8 captures(none) dereferenceable(8) %this, ptr noundef nonnull align 8 dereferenceable(32) %statement) local_unnamed_addr #0 align 2 {
entry:
  %0 = load ptr, ptr %this, align 8
  %cmp = icmp ne ptr %0, null
  br i1 %cmp, label %if.end, label %return

if.end:                                           ; preds = %entry
  %call = tail call noundef zeroext i1 @_ZNKSt7__cxx1112basic_stringIcSt11char_traitsIcESaIcEE5emptyEv(ptr noundef nonnull align 8 dereferenceable(32) %statement) #14
  br i1 %call, label %return, label %if.then2

if.then2:                                         ; preds = %if.end
  %1 = load ptr, ptr %this, align 8
  %vtable = load ptr, ptr %1, align 8
  %vfn = getelementptr inbounds nuw i8, ptr %vtable, i64 48
  %2 = load ptr, ptr %vfn, align 8
  %call4 = tail call noundef i64 %2(ptr noundef nonnull align 8 dereferenceable(24) %1, ptr noundef nonnull align 8 dereferenceable(32) %statement)
  br label %return

return:                                           ; preds = %if.end, %if.then2, %entry
  ret i1 %cmp
}